(dp1
S'output'
p2
S"<class 'sqlite3.OperationalError'> no such table: auth_user"
p3
sS'layer'
p4
S'/Users/mukulhase/Downloads/web2py/web2py.app/Contents/Resources/applications/CalenZone/controllers/default.py'
p5
sS'code'
p6
S'# -*- coding: utf-8 -*-\n# this file is released under public domain and you can use without limitations\n\n#########################################################################\n## This is a sample controller\n## - index is the default action of any application\n## - user is required for authentication and authorization\n## - download is for downloading files uploaded in the db (does streaming)\n#########################################################################\nimport time\nimport datetime\n\ndef index():\n    """\n    example action using the internationalization operator T and flash\n    rendered by views/default/index.html or views/generic.html\n\n    if you need a simple wiki simply replace the two lines below with:\n    return auth.wiki()\n    """\n    response.flash = T("Welcome to IIIT Calendar Portal")\n    redirect(URL(\'calendar\'))\n    return dict(title=\'Please Log in\')\n\n@auth.requires_login()\ndef profile():\n    form = SQLFORM(db.userTag)\n    #dn=db(db.auth_user.id==request.args[0]).select()\n    #tags = db(db.auth_user.id==db.userTag.auth_user and db.tag.id==db.userTag.tag).select(db.auth_user.email, db.tag.tagName)\n    temp = db(db.userTag.auth_user==session.auth.user.id).select(db.userTag.tag)\n    mytags = []\n    mytags += [db.tag[i.tag].tagName for i in temp]\n    form.vars.auth_user = session.auth.user.id\n    grid = SQLFORM.grid(db.events.ownerOfEvent == session.auth.user.id)\n    if form.process().accepted:\n        response.flash = T("Tag Added!")\n        redirect(URL())\n    return locals()\n\n@auth.requires_login()\ndef createEvent():\n    form = SQLFORM(db.events)\n    form.vars.ownerOfEvent = session.auth.user.id\n    if form.process().accepted:\n        response.flash = T("Event Created!")\n        redirect(URL(\'showEvent\', args=[4]))\n    return dict(form=form)\n\n@auth.requires_login()\ndef setEventTags():\n    form = SQLFORM(db.eventTag)\n    if form.process().accepted:\n        response.flash = T("Tag added!")\n    return dict(form=form)\n\ndef showEvent():\n    event = db(db.events.auth_user == request.args[0]).select()[0]\n    return locals();\n\ndef showDes():\n    des = db(db.events.id == request.args[0]).select(db.events.description)[0]\n    return locals()\n\n@auth.requires_login()\ndef calendar():\n    return locals()\n\n@auth.requires_login()\ndef eventView():\n    ##db(db.userTag.auth_user==session.auth.user.id).select()\n    #tags=db(db.userTag.auth_user==session.auth.user.id).select(db.userTag.tag)\n    #events = []\n    #blah = tags[0]\n    #for taga in tags:\n    #    events = db(db.eventTag.tag == taga).select(db.events.eventName)\n    events = db(db.userTag.auth_user==session.auth.user.id and db.userTag.tag==db.eventTag.tag and db.events.id == db.eventTag.events).select(db.events.eventName, db.events.id, db.events.startAt, db.events.endAt, db.events.typeOfEvent, distinct=True)\n    #events[0].typeOfEvent="SADASDASDASFASGSGDJ"\n    for event in events:\n        event["title"] = event["eventName"]\n        if event.typeOfEvent == \'Academic\':\n            event["class"] = "event-important"\n        event["url"] = URL(\'showDes\', args=[event.id])\n        event["start"]=(event["startAt"] - datetime.datetime(1970,1,1)).total_seconds()*1000\n        event["end"]=(event["endAt"] - datetime.datetime(1970,1,1)).total_seconds()*1000\n        #event["url"] = event.eventName\n\n    return dict(success=1, result=events)\n\n\ndef user():\n    """\n    exposes:\n    http://..../[app]/default/user/login\n    http://..../[app]/default/user/logout\n    http://..../[app]/default/user/register\n    http://..../[app]/default/user/profile\n    http://..../[app]/default/user/retrieve_password\n    http://..../[app]/default/user/change_password\n    http://..../[app]/default/user/manage_users (requires membership in\n    http://..../[app]/default/user/bulk_register\n    use @auth.requires_login()\n        @auth.requires_membership(\'group name\')\n        @auth.requires_permission(\'read\',\'table name\',record_id)\n    to decorate functions that need access control\n    """\n    return dict(form=auth())\n\n\n@cache.action()\ndef download():\n    """\n    allows downloading of uploaded files\n    http://..../[app]/default/download/[filename]\n    """\n    return response.download(request, db)\n\n\ndef call():\n    """\n    exposes services. for example:\n    http://..../[app]/default/call/jsonrpc\n    decorate with @services.jsonrpc the functions to expose\n    supports xml, json, xmlrpc, jsonrpc, amfrpc, rss, csv\n    """\n    return service()\n\nresponse._vars=response._caller(user)\n'
p7
sS'snapshot'
p8
(dp9
S'exception'
p10
(dp11
S'__module__'
p12
S"'sqlite3'"
p13
sS'__getslice__'
p14
S"<method-wrapper '__getslice__' of OperationalError object>"
p15
sS'__str__'
p16
S"<method-wrapper '__str__' of OperationalError object>"
p17
sS'__reduce__'
p18
S'<built-in method __reduce__ of OperationalError object>'
p19
sS'__dict__'
p20
S'{}'
p21
sS'__sizeof__'
p22
S'<built-in method __sizeof__ of OperationalError object>'
p23
sS'__weakref__'
p24
S'None'
p25
sS'__init__'
p26
S"<method-wrapper '__init__' of OperationalError object>"
p27
sS'__setattr__'
p28
S"<method-wrapper '__setattr__' of OperationalError object>"
p29
sS'__reduce_ex__'
p30
S'<built-in method __reduce_ex__ of OperationalError object>'
p31
sS'__new__'
p32
S'<built-in method __new__ of type object>'
p33
sS'__format__'
p34
S'<built-in method __format__ of OperationalError object>'
p35
sS'__class__'
p36
S"<class 'sqlite3.OperationalError'>"
p37
sS'__doc__'
p38
S'None'
p39
sS'__getitem__'
p40
S"<method-wrapper '__getitem__' of OperationalError object>"
p41
sS'__setstate__'
p42
S'<built-in method __setstate__ of OperationalError object>'
p43
sS'__getattribute__'
p44
S"<method-wrapper '__getattribute__' of OperationalError object>"
p45
sS'args'
p46
S"('no such table: auth_user',)"
p47
sS'__subclasshook__'
p48
S'<built-in method __subclasshook__ of type object>'
p49
sS'__unicode__'
p50
S'<built-in method __unicode__ of OperationalError object>'
p51
sS'__delattr__'
p52
S"<method-wrapper '__delattr__' of OperationalError object>"
p53
sS'__repr__'
p54
S"<method-wrapper '__repr__' of OperationalError object>"
p55
sS'__hash__'
p56
S"<method-wrapper '__hash__' of OperationalError object>"
p57
ssS'evalue'
p58
S'no such table: auth_user'
p59
sS'request'
p60
cgluon.html
XML_unpickle
p61
(S's\xfad\x00\x00<div><table><tr><td style="font-weight:bold;vertical-align:top;">ajax</td><td style="vertical-align:top;">:</td><td><div>False</div></td></tr><tr><td style="font-weight:bold;vertical-align:top;">application</td><td style="vertical-align:top;">:</td><td><div>CalenZone</div></td></tr><tr><td style="font-weight:bold;vertical-align:top;">args</td><td style="vertical-align:top;">:</td><td><div><table><tr><td><div>login</div></td></tr></table></div></td></tr><tr><td style="font-weight:bold;vertical-align:top;">cid</td><td style="vertical-align:top;">:</td><td><div>None</div></td></tr><tr><td style="font-weight:bold;vertical-align:top;">client</td><td style="vertical-align:top;">:</td><td><div>192.168.177.103</div></td></tr><tr><td style="font-weight:bold;vertical-align:top;">controller</td><td style="vertical-align:top;">:</td><td><div>default</div></td></tr><tr><td style="font-weight:bold;vertical-align:top;">cookies</td><td style="vertical-align:top;">:</td><td><div><table><tr><td style="font-weight:bold;vertical-align:top;">session_id_admin</td><td style="vertical-align:top;">:</td><td><div>192.168.177.103-8f0c3e90-b226-4dbc-8bc0-4994a2c77f1a<table><tr><td style="font-weight:bold;vertical-align:top;">comment</td><td style="vertical-align:top;">:</td><td><div></div></td></tr><tr><td style="font-weight:bold;vertical-align:top;">domain</td><td style="vertical-align:top;">:</td><td><div></div></td></tr><tr><td style="font-weight:bold;vertical-align:top;">expires</td><td style="vertical-align:top;">:</td><td><div></div></td></tr><tr><td style="font-weight:bold;vertical-align:top;">httponly</td><td style="vertical-align:top;">:</td><td><div></div></td></tr><tr><td style="font-weight:bold;vertical-align:top;">max-age</td><td style="vertical-align:top;">:</td><td><div></div></td></tr><tr><td style="font-weight:bold;vertical-align:top;">path</td><td style="vertical-align:top;">:</td><td><div></div></td></tr><tr><td style="font-weight:bold;vertical-align:top;">secure</td><td style="vertical-align:top;">:</td><td><div></div></td></tr><tr><td style="font-weight:bold;vertical-align:top;">version</td><td style="vertical-align:top;">:</td><td><div></div></td></tr></table></div></td></tr><tr><td style="font-weight:bold;vertical-align:top;">session_id_calenzone</td><td style="vertical-align:top;">:</td><td><div>192.168.177.103-30b8c301-d911-42f0-95c0-0d74e4545a1b<table><tr><td style="font-weight:bold;vertical-align:top;">comment</td><td style="vertical-align:top;">:</td><td><div></div></td></tr><tr><td style="font-weight:bold;vertical-align:top;">domain</td><td style="vertical-align:top;">:</td><td><div></div></td></tr><tr><td style="font-weight:bold;vertical-align:top;">expires</td><td style="vertical-align:top;">:</td><td><div></div></td></tr><tr><td style="font-weight:bold;vertical-align:top;">httponly</td><td style="vertical-align:top;">:</td><td><div></div></td></tr><tr><td style="font-weight:bold;vertical-align:top;">max-age</td><td style="vertical-align:top;">:</td><td><div></div></td></tr><tr><td style="font-weight:bold;vertical-align:top;">path</td><td style="vertical-align:top;">:</td><td><div></div></td></tr><tr><td style="font-weight:bold;vertical-align:top;">secure</td><td style="vertical-align:top;">:</td><td><div></div></td></tr><tr><td style="font-weight:bold;vertical-align:top;">version</td><td style="vertical-align:top;">:</td><td><div></div></td></tr></table></div></td></tr></table></div></td></tr><tr><td style="font-weight:bold;vertical-align:top;">env</td><td style="vertical-align:top;">:</td><td><div><table><tr><td style="font-weight:bold;vertical-align:top;">CONTENT_LENGTH</td><td style="vertical-align:top;">:</td><td><div>609</div></td></tr><tr><td style="font-weight:bold;vertical-align:top;">CONTENT_TYPE</td><td style="vertical-align:top;">:</td><td><div>multipart/form-data; boundary=----WebKitFormBoundarygcC1mYU3rc8S1zhC</div></td></tr><tr><td style="font-weight:bold;vertical-align:top;">HTTP_ACCEPT</td><td style="vertical-align:top;">:</td><td><div>text/html,application/xhtml+xml,application/xml;q=0.9,image/webp,*/*;q=0.8</div></td></tr><tr><td style="font-weight:bold;vertical-align:top;">HTTP_ACCEPT_ENCODING</td><td style="vertical-align:top;">:</td><td><div>gzip, deflate</div></td></tr><tr><td style="font-weight:bold;vertical-align:top;">HTTP_ACCEPT_LANGUAGE</td><td style="vertical-align:top;">:</td><td><div>en-US,en;q=0.8</div></td></tr><tr><td style="font-weight:bold;vertical-align:top;">HTTP_CACHE_CONTROL</td><td style="vertical-align:top;">:</td><td><div>max-age=0</div></td></tr><tr><td style="font-weight:bold;vertical-align:top;">HTTP_CONNECTION</td><td style="vertical-align:top;">:</td><td><div>keep-alive</div></td></tr><tr><td style="font-weight:bold;vertical-align:top;">HTTP_CONTENT_LENGTH</td><td style="vertical-align:top;">:</td><td><div>609</div></td></tr><tr><td style="font-weight:bold;vertical-align:top;">HTTP_CONTENT_TYPE</td><td style="vertical-align:top;">:</td><td><div>multipart/form-data; boundary=----WebKitFormBoundarygcC1mYU3rc8S1zhC</div></td></tr><tr><td style="font-weight:bold;vertical-align:top;">HTTP_COOKIE</td><td style="vertical-align:top;">:</td><td><div>session_id_admin=192.168.177.103-8f0c3e90-b226-4dbc-8bc0-4994a2c77f1a; session_id_calenzone=192.168.177.103-30b8c301-d911-42f0-95c0-0d74e4545a1b</div></td></tr><tr><td style="font-weight:bold;vertical-align:top;">HTTP_HOST</td><td style="vertical-align:top;">:</td><td><div>192.168.177.103:8000</div></td></tr><tr><td style="font-weight:bold;vertical-align:top;">HTTP_ORIGIN</td><td style="vertical-align:top;">:</td><td><div>http://192.168.177.103:8000</div></td></tr><tr><td style="font-weight:bold;vertical-align:top;">HTTP_REFERER</td><td style="vertical-align:top;">:</td><td><div>http://192.168.177.103:8000/CalenZone/default/user/login?_next=/CalenZone/default/calendar</div></td></tr><tr><td style="font-weight:bold;vertical-align:top;">HTTP_UPGRADE_INSECURE_REQUESTS</td><td style="vertical-align:top;">:</td><td><div>1</div></td></tr><tr><td style="font-weight:bold;vertical-align:top;">HTTP_USER_AGENT</td><td style="vertical-align:top;">:</td><td><div>Mozilla/5.0 (Macintosh; Intel Mac OS X 10_11_2) AppleWebKit/537.36 (KHTML, like Gecko) Chrome/46.0.2490.86 Safari/537.36</div></td></tr><tr><td style="font-weight:bold;vertical-align:top;">PATH_INFO</td><td style="vertical-align:top;">:</td><td><div>/CalenZone/default/user/login</div></td></tr><tr><td style="font-weight:bold;vertical-align:top;">QUERY_STRING</td><td style="vertical-align:top;">:</td><td><div>_next=/CalenZone/default/calendar</div></td></tr><tr><td style="font-weight:bold;vertical-align:top;">REMOTE_ADDR</td><td style="vertical-align:top;">:</td><td><div>192.168.177.103</div></td></tr><tr><td style="font-weight:bold;vertical-align:top;">REMOTE_PORT</td><td style="vertical-align:top;">:</td><td><div>65353</div></td></tr><tr><td style="font-weight:bold;vertical-align:top;">REQUEST_METHOD</td><td style="vertical-align:top;">:</td><td><div>POST</div></td></tr><tr><td style="font-weight:bold;vertical-align:top;">SCRIPT_NAME</td><td style="vertical-align:top;">:</td><td><div></div></td></tr><tr><td style="font-weight:bold;vertical-align:top;">SERVER_NAME</td><td style="vertical-align:top;">:</td><td><div>MacBook-Pro.connectify</div></td></tr><tr><td style="font-weight:bold;vertical-align:top;">SERVER_PORT</td><td style="vertical-align:top;">:</td><td><div>8000</div></td></tr><tr><td style="font-weight:bold;vertical-align:top;">SERVER_PROTOCOL</td><td style="vertical-align:top;">:</td><td><div>HTTP/1.1</div></td></tr><tr><td style="font-weight:bold;vertical-align:top;">SERVER_SOFTWARE</td><td style="vertical-align:top;">:</td><td><div>Rocket 1.2.6</div></td></tr><tr><td style="font-weight:bold;vertical-align:top;">app_folders</td><td style="vertical-align:top;">:</td><td><div>set([&#x27;/Users/mukulhase/Downloads/web2py/web2py.app/Contents/Resources/applications/calenzone/&#x27;, &#x27;/Users/mukulhase/Downloads/web2py/web2py.app/Contents/Resources/applications/CalenZone/&#x27;, &#x27;/Users/mukulhase/Downloads/web2py/web2py.app/Contents/Resources/applications/Calenzone/&#x27;, &#x27;/Users/mukulhase/Downloads/web2py/web2py.app/Contents/Resources/applications/admin/&#x27;, &#x27;/Users/mukulhase/Downloads/web2py/web2py.app/Contents/Resources/applications/welcome/&#x27;, &#x27;/Users/mukulhase/Downloads/web2py/web2py.app/Contents/Resources/applications/calenZone/&#x27;])</div></td></tr><tr><td style="font-weight:bold;vertical-align:top;">applications_parent</td><td style="vertical-align:top;">:</td><td><div>/Users/mukulhase/Downloads/web2py/web2py.app/Contents/Resources</div></td></tr><tr><td style="font-weight:bold;vertical-align:top;">cmd_args</td><td style="vertical-align:top;">:</td><td><div><table></table></div></td></tr><tr><td style="font-weight:bold;vertical-align:top;">cmd_options</td><td style="vertical-align:top;">:</td><td><div>&lt;Values at 0x106df3098: {&#x27;verbose&#x27;: False, &#x27;ip&#x27;: &#x27;127.0.0.1&#x27;, &#x27;debuglevel&#x27;: 30, &#x27;with_scheduler&#x27;: False, &#x27;ips&#x27;: [&#x27;192.168.177.103&#x27;], &#x27;shutdown_timeout&#x27;: 5, &#x27;taskbar&#x27;: False, &#x27;with_coverage&#x27;: False, &#x27;scheduler_groups&#x27;: None, &#x27;port&#x27;: 8000, &#x27;maxthreads&#x27;: None, &#x27;softcron&#x27;: False, &#x27;server_name&#x27;: &#x27;MacBook-Pro.connectify&#x27;, &#x27;bpython&#x27;: False, &#x27;nogui&#x27;: False, &#x27;pid_filename&#x27;: &#x27;httpserver.pid&#x27;, &#x27;print_errors&#x27;: False, &#x27;extcron&#x27;: False, &#x27;runcron&#x27;: False, &#x27;run_system_tests&#x27;: False, &#x27;test&#x27;: None, &#x27;folder&#x27;: &#x27;/Users/mukulhase/Downloads/web2py/web2py.app/Contents/Resources&#x27;, &#x27;config&#x27;: &#x27;&#x27;, &#x27;minthreads&#x27;: None, &#x27;shell&#x27;: None, &#x27;run&#x27;: &#x27;&#x27;, &#x27;log_filename&#x27;: &#x27;httpserver.log&#x27;, &#x27;profiler_dir&#x27;: None, &#x27;args&#x27;: [&#x27;&#x27;], &#x27;socket_timeout&#x27;: 5, &#x27;ssl_ca_certificate&#x27;: None, &#x27;scheduler&#x27;: None, &#x27;interfaces&#x27;: None, &#x27;ssl_private_key&#x27;: &#x27;&#x27;, &#x27;gae&#x27;: None, &#x27;password&#x27;: &#x27;&lt;ask&gt;&#x27;, &#x27;request_queue_size&#x27;: 5, &#x27;ssl_certificate&#x27;: &#x27;&#x27;, &#x27;cronjob&#x27;: False, &#x27;numthreads&#x27;: None, &#x27;quiet&#x27;: False, &#x27;import_models&#x27;: False, &#x27;timeout&#x27;: 10, &#x27;plain&#x27;: False, &#x27;nobanner&#x27;: False}&gt;</div></td></tr><tr><td style="font-weight:bold;vertical-align:top;">content_length</td><td style="vertical-align:top;">:</td><td><div>609</div></td></tr><tr><td style="font-weight:bold;vertical-align:top;">content_type</td><td style="vertical-align:top;">:</td><td><div>multipart/form-data; boundary=----WebKitFormBoundarygcC1mYU3rc8S1zhC</div></td></tr><tr><td style="font-weight:bold;vertical-align:top;">db_sessions</td><td style="vertical-align:top;">:</td><td><div>set([])</div></td></tr><tr><td style="font-weight:bold;vertical-align:top;">debugging</td><td style="vertical-align:top;">:</td><td><div>True</div></td></tr><tr><td style="font-weight:bold;vertical-align:top;">gluon_parent</td><td style="vertical-align:top;">:</td><td><div>/Users/mukulhase/Downloads/web2py/web2py.app/Contents/Resources</div></td></tr><tr><td style="font-weight:bold;vertical-align:top;">http_accept</td><td style="vertical-align:top;">:</td><td><div>text/html,application/xhtml+xml,application/xml;q=0.9,image/webp,*/*;q=0.8</div></td></tr><tr><td style="font-weight:bold;vertical-align:top;">http_accept_encoding</td><td style="vertical-align:top;">:</td><td><div>gzip, deflate</div></td></tr><tr><td style="font-weight:bold;vertical-align:top;">http_accept_language</td><td style="vertical-align:top;">:</td><td><div>en-US,en;q=0.8</div></td></tr><tr><td style="font-weight:bold;vertical-align:top;">http_cache_control</td><td style="vertical-align:top;">:</td><td><div>max-age=0</div></td></tr><tr><td style="font-weight:bold;vertical-align:top;">http_connection</td><td style="vertical-align:top;">:</td><td><div>keep-alive</div></td></tr><tr><td style="font-weight:bold;vertical-align:top;">http_content_length</td><td style="vertical-align:top;">:</td><td><div>609</div></td></tr><tr><td style="font-weight:bold;vertical-align:top;">http_content_type</td><td style="vertical-align:top;">:</td><td><div>multipart/form-data; boundary=----WebKitFormBoundarygcC1mYU3rc8S1zhC</div></td></tr><tr><td style="font-weight:bold;vertical-align:top;">http_cookie</td><td style="vertical-align:top;">:</td><td><div>session_id_admin=192.168.177.103-8f0c3e90-b226-4dbc-8bc0-4994a2c77f1a; session_id_calenzone=192.168.177.103-30b8c301-d911-42f0-95c0-0d74e4545a1b</div></td></tr><tr><td style="font-weight:bold;vertical-align:top;">http_host</td><td style="vertical-align:top;">:</td><td><div>192.168.177.103:8000</div></td></tr><tr><td style="font-weight:bold;vertical-align:top;">http_origin</td><td style="vertical-align:top;">:</td><td><div>http://192.168.177.103:8000</div></td></tr><tr><td style="font-weight:bold;vertical-align:top;">http_referer</td><td style="vertical-align:top;">:</td><td><div>http://192.168.177.103:8000/CalenZone/default/user/login?_next=/CalenZone/default/calendar</div></td></tr><tr><td style="font-weight:bold;vertical-align:top;">http_upgrade_insecure_requests</td><td style="vertical-align:top;">:</td><td><div>1</div></td></tr><tr><td style="font-weight:bold;vertical-align:top;">http_user_agent</td><td style="vertical-align:top;">:</td><td><div>Mozilla/5.0 (Macintosh; Intel Mac OS X 10_11_2) AppleWebKit/537.36 (KHTML, like Gecko) Chrome/46.0.2490.86 Safari/537.36</div></td></tr><tr><td style="font-weight:bold;vertical-align:top;">is_jython</td><td style="vertical-align:top;">:</td><td><div>False</div></td></tr><tr><td style="font-weight:bold;vertical-align:top;">is_pypy</td><td style="vertical-align:top;">:</td><td><div>False</div></td></tr><tr><td style="font-weight:bold;vertical-align:top;">is_source</td><td style="vertical-align:top;">:</td><td><div>True</div></td></tr><tr><td style="font-weight:bold;vertical-align:top;">local_hosts</td><td style="vertical-align:top;">:</td><td><div><table><tr><td><div>MacBook-Pro.connectify</div></td></tr><tr><td><div>::ffff:127.0.0.1</div></td></tr><tr><td><div>::1</div></td></tr><tr><td><div>macbook-pro.connectify</div></td></tr><tr><td><div>127.0.0.1</div></td></tr><tr><td><div>192.168.177.103</div></td></tr></table></div></td></tr><tr><td style="font-weight:bold;vertical-align:top;">path_info</td><td style="vertical-align:top;">:</td><td><div>/CalenZone/default/user/login</div></td></tr><tr><td style="font-weight:bold;vertical-align:top;">query_string</td><td style="vertical-align:top;">:</td><td><div>_next=/CalenZone/default/calendar</div></td></tr><tr><td style="font-weight:bold;vertical-align:top;">remote_addr</td><td style="vertical-align:top;">:</td><td><div>192.168.177.103</div></td></tr><tr><td style="font-weight:bold;vertical-align:top;">remote_port</td><td style="vertical-align:top;">:</td><td><div>65353</div></td></tr><tr><td style="font-weight:bold;vertical-align:top;">request_method</td><td style="vertical-align:top;">:</td><td><div>POST</div></td></tr><tr><td style="font-weight:bold;vertical-align:top;">request_uri</td><td style="vertical-align:top;">:</td><td><div>/CalenZone/default/user/login?_next=/CalenZone/default/calendar</div></td></tr><tr><td style="font-weight:bold;vertical-align:top;">script_name</td><td style="vertical-align:top;">:</td><td><div></div></td></tr><tr><td style="font-weight:bold;vertical-align:top;">server_name</td><td style="vertical-align:top;">:</td><td><div>MacBook-Pro.connectify</div></td></tr><tr><td style="font-weight:bold;vertical-align:top;">server_port</td><td style="vertical-align:top;">:</td><td><div>8000</div></td></tr><tr><td style="font-weight:bold;vertical-align:top;">server_protocol</td><td style="vertical-align:top;">:</td><td><div>HTTP/1.1</div></td></tr><tr><td style="font-weight:bold;vertical-align:top;">server_software</td><td style="vertical-align:top;">:</td><td><div>Rocket 1.2.6</div></td></tr><tr><td style="font-weight:bold;vertical-align:top;">web2py_path</td><td style="vertical-align:top;">:</td><td><div>/Users/mukulhase/Downloads/web2py/web2py.app/Contents/Resources</div></td></tr><tr><td style="font-weight:bold;vertical-align:top;">web2py_version</td><td style="vertical-align:top;">:</td><td><div>2.12.3-stable+timestamp.2015.08.19.00.18.03</div></td></tr><tr><td style="font-weight:bold;vertical-align:top;">wsgi.errors</td><td style="vertical-align:top;">:</td><td><div>&lt;open file &#x27;&lt;stderr&gt;&#x27;, mode &#x27;w&#x27; at 0x100060270&gt;</div></td></tr><tr><td style="font-weight:bold;vertical-align:top;">wsgi.file_wrapper</td><td style="vertical-align:top;">:</td><td><div>&lt;class wsgiref.util.FileWrapper at 0x107055c18&gt;</div></td></tr><tr><td style="font-weight:bold;vertical-align:top;">wsgi.input</td><td style="vertical-align:top;">:</td><td><div>&lt;socket._fileobject object at 0x107c16ed0&gt;</div></td></tr><tr><td style="font-weight:bold;vertical-align:top;">wsgi.multiprocess</td><td style="vertical-align:top;">:</td><td><div>False</div></td></tr><tr><td style="font-weight:bold;vertical-align:top;">wsgi.multithread</td><td style="vertical-align:top;">:</td><td><div>True</div></td></tr><tr><td style="font-weight:bold;vertical-align:top;">wsgi.run_once</td><td style="vertical-align:top;">:</td><td><div>False</div></td></tr><tr><td style="font-weight:bold;vertical-align:top;">wsgi.url_scheme</td><td style="vertical-align:top;">:</td><td><div>http</div></td></tr><tr><td style="font-weight:bold;vertical-align:top;">wsgi.version</td><td style="vertical-align:top;">:</td><td><div><table><tr><td><div>1</div></td></tr><tr><td><div>0</div></td></tr></table></div></td></tr><tr><td style="font-weight:bold;vertical-align:top;">wsgi_errors</td><td style="vertical-align:top;">:</td><td><div>&lt;open file &#x27;&lt;stderr&gt;&#x27;, mode &#x27;w&#x27; at 0x100060270&gt;</div></td></tr><tr><td style="font-weight:bold;vertical-align:top;">wsgi_file_wrapper</td><td style="vertical-align:top;">:</td><td><div>&lt;class wsgiref.util.FileWrapper at 0x107055c18&gt;</div></td></tr><tr><td style="font-weight:bold;vertical-align:top;">wsgi_input</td><td style="vertical-align:top;">:</td><td><div>&lt;socket._fileobject object at 0x107c16ed0&gt;</div></td></tr><tr><td style="font-weight:bold;vertical-align:top;">wsgi_multiprocess</td><td style="vertical-align:top;">:</td><td><div>False</div></td></tr><tr><td style="font-weight:bold;vertical-align:top;">wsgi_multithread</td><td style="vertical-align:top;">:</td><td><div>True</div></td></tr><tr><td style="font-weight:bold;vertical-align:top;">wsgi_run_once</td><td style="vertical-align:top;">:</td><td><div>False</div></td></tr><tr><td style="font-weight:bold;vertical-align:top;">wsgi_url_scheme</td><td style="vertical-align:top;">:</td><td><div>http</div></td></tr><tr><td style="font-weight:bold;vertical-align:top;">wsgi_version</td><td style="vertical-align:top;">:</td><td><div><table><tr><td><div>1</div></td></tr><tr><td><div>0</div></td></tr></table></div></td></tr></table></div></td></tr><tr><td style="font-weight:bold;vertical-align:top;">extension</td><td style="vertical-align:top;">:</td><td><div>html</div></td></tr><tr><td style="font-weight:bold;vertical-align:top;">folder</td><td style="vertical-align:top;">:</td><td><div>/Users/mukulhase/Downloads/web2py/web2py.app/Contents/Resources/applications/CalenZone/</div></td></tr><tr><td style="font-weight:bold;vertical-align:top;">function</td><td style="vertical-align:top;">:</td><td><div>user</div></td></tr><tr><td style="font-weight:bold;vertical-align:top;">global_settings</td><td style="vertical-align:top;">:</td><td><div><table><tr><td style="font-weight:bold;vertical-align:top;">app_folders</td><td style="vertical-align:top;">:</td><td><div>set([&#x27;/Users/mukulhase/Downloads/web2py/web2py.app/Contents/Resources/applications/calenzone/&#x27;, &#x27;/Users/mukulhase/Downloads/web2py/web2py.app/Contents/Resources/applications/CalenZone/&#x27;, &#x27;/Users/mukulhase/Downloads/web2py/web2py.app/Contents/Resources/applications/Calenzone/&#x27;, &#x27;/Users/mukulhase/Downloads/web2py/web2py.app/Contents/Resources/applications/admin/&#x27;, &#x27;/Users/mukulhase/Downloads/web2py/web2py.app/Contents/Resources/applications/welcome/&#x27;, &#x27;/Users/mukulhase/Downloads/web2py/web2py.app/Contents/Resources/applications/calenZone/&#x27;])</div></td></tr><tr><td style="font-weight:bold;vertical-align:top;">applications_parent</td><td style="vertical-align:top;">:</td><td><div>/Users/mukulhase/Downloads/web2py/web2py.app/Contents/Resources</div></td></tr><tr><td style="font-weight:bold;vertical-align:top;">cmd_args</td><td style="vertical-align:top;">:</td><td><div><table></table></div></td></tr><tr><td style="font-weight:bold;vertical-align:top;">cmd_options</td><td style="vertical-align:top;">:</td><td><div>&lt;Values at 0x106df3098: {&#x27;verbose&#x27;: False, &#x27;ip&#x27;: &#x27;127.0.0.1&#x27;, &#x27;debuglevel&#x27;: 30, &#x27;with_scheduler&#x27;: False, &#x27;ips&#x27;: [&#x27;192.168.177.103&#x27;], &#x27;shutdown_timeout&#x27;: 5, &#x27;taskbar&#x27;: False, &#x27;with_coverage&#x27;: False, &#x27;scheduler_groups&#x27;: None, &#x27;port&#x27;: 8000, &#x27;maxthreads&#x27;: None, &#x27;softcron&#x27;: False, &#x27;server_name&#x27;: &#x27;MacBook-Pro.connectify&#x27;, &#x27;bpython&#x27;: False, &#x27;nogui&#x27;: False, &#x27;pid_filename&#x27;: &#x27;httpserver.pid&#x27;, &#x27;print_errors&#x27;: False, &#x27;extcron&#x27;: False, &#x27;runcron&#x27;: False, &#x27;run_system_tests&#x27;: False, &#x27;test&#x27;: None, &#x27;folder&#x27;: &#x27;/Users/mukulhase/Downloads/web2py/web2py.app/Contents/Resources&#x27;, &#x27;config&#x27;: &#x27;&#x27;, &#x27;minthreads&#x27;: None, &#x27;shell&#x27;: None, &#x27;run&#x27;: &#x27;&#x27;, &#x27;log_filename&#x27;: &#x27;httpserver.log&#x27;, &#x27;profiler_dir&#x27;: None, &#x27;args&#x27;: [&#x27;&#x27;], &#x27;socket_timeout&#x27;: 5, &#x27;ssl_ca_certificate&#x27;: None, &#x27;scheduler&#x27;: None, &#x27;interfaces&#x27;: None, &#x27;ssl_private_key&#x27;: &#x27;&#x27;, &#x27;gae&#x27;: None, &#x27;password&#x27;: &#x27;&lt;ask&gt;&#x27;, &#x27;request_queue_size&#x27;: 5, &#x27;ssl_certificate&#x27;: &#x27;&#x27;, &#x27;cronjob&#x27;: False, &#x27;numthreads&#x27;: None, &#x27;quiet&#x27;: False, &#x27;import_models&#x27;: False, &#x27;timeout&#x27;: 10, &#x27;plain&#x27;: False, &#x27;nobanner&#x27;: False}&gt;</div></td></tr><tr><td style="font-weight:bold;vertical-align:top;">db_sessions</td><td style="vertical-align:top;">:</td><td><div>set([])</div></td></tr><tr><td style="font-weight:bold;vertical-align:top;">debugging</td><td style="vertical-align:top;">:</td><td><div>True</div></td></tr><tr><td style="font-weight:bold;vertical-align:top;">gluon_parent</td><td style="vertical-align:top;">:</td><td><div>/Users/mukulhase/Downloads/web2py/web2py.app/Contents/Resources</div></td></tr><tr><td style="font-weight:bold;vertical-align:top;">is_jython</td><td style="vertical-align:top;">:</td><td><div>False</div></td></tr><tr><td style="font-weight:bold;vertical-align:top;">is_pypy</td><td style="vertical-align:top;">:</td><td><div>False</div></td></tr><tr><td style="font-weight:bold;vertical-align:top;">is_source</td><td style="vertical-align:top;">:</td><td><div>True</div></td></tr><tr><td style="font-weight:bold;vertical-align:top;">local_hosts</td><td style="vertical-align:top;">:</td><td><div><table><tr><td><div>MacBook-Pro.connectify</div></td></tr><tr><td><div>::ffff:127.0.0.1</div></td></tr><tr><td><div>::1</div></td></tr><tr><td><div>macbook-pro.connectify</div></td></tr><tr><td><div>127.0.0.1</div></td></tr><tr><td><div>192.168.177.103</div></td></tr></table></div></td></tr><tr><td style="font-weight:bold;vertical-align:top;">web2py_version</td><td style="vertical-align:top;">:</td><td><div>2.12.3-stable+timestamp.2015.08.19.00.18.03</div></td></tr></table></div></td></tr><tr><td style="font-weight:bold;vertical-align:top;">is_https</td><td style="vertical-align:top;">:</td><td><div>False</div></td></tr><tr><td style="font-weight:bold;vertical-align:top;">is_local</td><td style="vertical-align:top;">:</td><td><div>True</div></td></tr><tr><td style="font-weight:bold;vertical-align:top;">is_restful</td><td style="vertical-align:top;">:</td><td><div>False</div></td></tr><tr><td style="font-weight:bold;vertical-align:top;">is_sheduler</td><td style="vertical-align:top;">:</td><td><div>None</div></td></tr><tr><td style="font-weight:bold;vertical-align:top;">is_shell</td><td style="vertical-align:top;">:</td><td><div>None</div></td></tr><tr><td style="font-weight:bold;vertical-align:top;">now</td><td style="vertical-align:top;">:</td><td><div>datetime.datetime(2015, 11, 15, 13, 20, 41, 144737)</div></td></tr><tr><td style="font-weight:bold;vertical-align:top;">raw_args</td><td style="vertical-align:top;">:</td><td><div>login</div></td></tr><tr><td style="font-weight:bold;vertical-align:top;">raw_extension</td><td style="vertical-align:top;">:</td><td><div>None</div></td></tr><tr><td style="font-weight:bold;vertical-align:top;">url</td><td style="vertical-align:top;">:</td><td><div>/CalenZone/default/user/login</div></td></tr><tr><td style="font-weight:bold;vertical-align:top;">utcnow</td><td style="vertical-align:top;">:</td><td><div>datetime.datetime(2015, 11, 15, 7, 50, 41, 144749)</div></td></tr><tr><td style="font-weight:bold;vertical-align:top;">wsgi</td><td style="vertical-align:top;">:</td><td><div>&lt;gluon.main.LazyWSGI object at 0x118dacd90&gt;</div></td></tr></table></div>'
tRp62
sS'frames'
p63
(lp64
(dp65
S'file'
p66
S'/Users/mukulhase/Downloads/web2py/web2py.app/Contents/Resources/gluon/restricted.py'
p67
sS'dump'
p68
(dp69
sS'lnum'
p70
I227
sS'lines'
p71
(dp72
I224
S'            ccode = code'
p73
sI225
S'        else:'
p74
sI226
S'            ccode = compile2(code, layer)'
p75
sI227
S'        exec ccode in environment'
p76
sI228
S'    except HTTP:'
p77
sI229
S'        raise'
p78
sI230
S'    except RestrictedError:'
p79
sI231
S'        # do not encapsulate (obfuscate) the original RestrictedError'
p80
sI222
S'    try:'
p81
sI223
S'        if isinstance(code, types.CodeType):'
p82
ssS'call'
p83
S"(code='# -*- coding: utf-8 -*-\\n# this file is released ...service()\\n\\nresponse._vars=response._caller(user)\\n', environment={'A': <class 'gluon.html.A'>, 'ANY_OF': <class 'gluon.validators.ANY_OF'>, 'ASSIGNJS': <function ASSIGNJS>, 'AppConfig': <function AppConfig>, 'Auth': <class 'gluon.tools.Auth'>, 'B': <class 'gluon.html.B'>, 'BEAUTIFY': <class 'gluon.html.BEAUTIFY'>, 'BODY': <class 'gluon.html.BODY'>, 'BR': <class 'gluon.html.BR'>, 'BUTTON': <class 'gluon.html.BUTTON'>, ...}, layer='/Users/mukulhase/Downloads/web2py/web2py.app/Con...ces/applications/CalenZone/controllers/default.py')"
p84
sS'func'
p85
S'restricted'
p86
sa(dp87
g66
S'/Users/mukulhase/Downloads/web2py/web2py.app/Contents/Resources/applications/CalenZone/controllers/default.py'
p88
sg68
(dp89
sg70
I127
sg71
(dp90
I116
S''
sI117
S''
sI118
S'def call():'
p91
sI119
S'    """'
p92
sI120
S'    exposes services. for example:'
p93
sI121
S'    http://..../[app]/default/call/jsonrpc'
p94
sI122
S'    decorate with @services.jsonrpc the functions to expose'
p95
sI123
S'    supports xml, json, xmlrpc, jsonrpc, amfrpc, rss, csv'
p96
sI124
S'    """'
p97
sI125
S'    return service()'
p98
ssg83
S'()'
p99
sg85
S'<module>'
p100
sa(dp101
g66
S'/Users/mukulhase/Downloads/web2py/web2py.app/Contents/Resources/gluon/globals.py'
p102
sg68
(dp103
sg70
I412
sg71
(dp104
I416
S"        self.generic_patterns = ['*']"
p105
sI407
S"        self.flash = ''            # used by the default view layout"
p106
sI408
S'        self.meta = Storage()      # used by web2py_ajax.html'
p107
sI409
S'        self.menu = []             # used by the default view layout'
p108
sI410
S'        self.files = []            # used by web2py_ajax.html'
p109
sI411
S'        self._vars = None'
p110
sI412
S'        self._caller = lambda f: f()'
p111
sI413
S'        self._view_environment = None'
p112
sI414
S'        self._custom_commit = None'
p113
sI415
S'        self._custom_rollback = None'
p114
ssg83
S'(f=<function user>)'
p115
sg85
S'<lambda>'
p116
sa(dp117
g66
S'/Users/mukulhase/Downloads/web2py/web2py.app/Contents/Resources/applications/CalenZone/controllers/default.py'
p118
sg68
(dp119
sg70
I106
sg71
(dp120
I101
S'    use @auth.requires_login()'
p121
sI102
S"        @auth.requires_membership('group name')"
p122
sI103
S"        @auth.requires_permission('read','table name',record_id)"
p123
sI104
S'    to decorate functions that need access control'
p124
sI105
S'    """'
p125
sI106
S'    return dict(form=auth())'
p126
sI107
S''
sI108
S''
sI109
S'@cache.action()'
p127
sI110
S'def download():'
p128
ssg83
S'()'
p129
sg85
S'user'
p130
sa(dp131
g66
S'/Users/mukulhase/Downloads/web2py/web2py.app/Contents/Resources/gluon/tools.py'
p132
sg68
(dp133
sg70
I1614
sg71
(dp134
I1609
S"                       'impersonate', 'not_authorized', 'confirm_registration',"
p135
sI1610
S"                       'bulk_register','manage_tokens'):"
p136
sI1611
S"            if len(request.args) >= 2 and args[0] == 'impersonate':"
p137
sI1612
S'                return getattr(self, args[0])(request.args[1])'
p138
sI1613
S'            else:'
p139
sI1614
S'                return getattr(self, args[0])()'
p140
sI1615
S"        elif args[0] == 'cas' and not self.settings.cas_provider:"
p141
sI1616
S"            if args(1) == self.settings.cas_actions['login']:"
p142
sI1617
S'                return self.cas_login(version=2)'
p143
sI1618
S"            elif args(1) == self.settings.cas_actions['validate']:"
p144
ssg83
S'(self=<gluon.tools.Auth object>)'
p145
sg85
S'__call__'
p146
sa(dp147
g66
S'/Users/mukulhase/Downloads/web2py/web2py.app/Contents/Resources/gluon/tools.py'
p148
sg68
(dp149
sg70
I2636
sg71
(dp150
I2631
S'                    entered_username = form.vars[username]'
p151
sI2632
S"                    if multi_login and '@' in entered_username:"
p152
sI2633
S"                        # if '@' in username check for email, not username"
p153
sI2634
S'                        user = table_user(email = entered_username)'
p154
sI2635
S'                    else:'
p155
sI2636
S'                        user = table_user(**{username: entered_username})'
p156
sI2637
S'                    if user:'
p157
sI2638
S'                        # user in db, check if registration pending or disabled'
p158
sI2639
S'                        temp_user = user'
p159
sI2640
S"                        if temp_user.registration_key == 'pending':"
p160
ssg83
S"(self=<gluon.tools.Auth object>, next='/CalenZone/default/calendar', onvalidation=[], onaccept=[], log='User %(id)s Logged-in')"
p161
sg85
S'login'
p162
sa(dp163
g66
S'/Users/mukulhase/Downloads/web2py/web2py.app/Contents/Resources/gluon/packages/dal/pydal/objects.py'
p164
sg68
(dp165
sg70
I540
sg71
(dp166
I544
S'    def __setitem__(self, key, value):'
p167
sI535
S'                for k,v in iteritems(kwargs):'
p168
sI536
S'                    if record[k]!=v: return None'
p169
sI537
S'            return record'
p170
sI538
S'        elif kwargs:'
p171
sI539
S'            query = reduce(lambda a,b:a&b,[self[k]==v for k,v in iteritems(kwargs)])'
p172
sI540
S'            return self._db(query).select(limitby=(0,1),for_update=for_update, orderby=orderby, orderby_on_limitby=False).first()'
p173
sI541
S'        else:'
p174
sI542
S'            return None'
p175
sI543
S''
ssg83
S"(self=<Table auth_user (id,first_name,last_name,email,...stration_key,reset_password_key,registration_id)>, key=<function <lambda>>, **kwargs={'email': 'mukulhase@gmail.com'})"
p176
sg85
g146
sa(dp177
g66
S'/Users/mukulhase/Downloads/web2py/web2py.app/Contents/Resources/gluon/packages/dal/pydal/objects.py'
p178
sg68
(dp179
sg70
I2002
sg71
(dp180
I1997
S"                                    attributes.get('join',None),"
p181
sI1998
S"                                    attributes.get('left',None),"
p182
sI1999
S"                                    attributes.get('orderby',None),"
p183
sI2000
S"                                    attributes.get('groupby',None))"
p184
sI2001
S'        fields = adapter.expand_all(fields, tablenames)'
p185
sI2002
S'        return adapter.select(self.query,fields,attributes)'
p186
sI2003
S''
sI2004
S'    def iterselect(self, *fields, **attributes):'
p187
sI2005
S'        adapter = self.db._adapter'
p188
sI2006
S'        tablenames = adapter.tables(self.query,'
p189
ssg83
S"(self=<Set (auth_user.email = 'mukulhase@gmail.com')>, *fields=[<pydal.objects.Field object>, <pydal.objects.Field object>, <pydal.objects.Field object>, <pydal.objects.Field object>, <pydal.objects.Field object>, <pydal.objects.Field object>, <pydal.objects.Field object>, <pydal.objects.Field object>], **attributes={'for_update': False, 'limitby': (0, 1), 'orderby': None, 'orderby_on_limitby': False})"
p190
sg85
S'select'
p191
sa(dp192
g66
S'/Users/mukulhase/Downloads/web2py/web2py.app/Contents/Resources/gluon/packages/dal/pydal/adapters/sqlite.py'
p193
sg68
(dp194
sg70
I122
sg71
(dp195
I117
S'        Note that the entire database, rather than one record, is locked'
p196
sI118
S'        (it will be locked eventually anyway by the following UPDATE).'
p197
sI119
S'        """'
p198
sI120
S"        if attributes.get('for_update', False) and not 'cache' in attributes:"
p199
sI121
S"            self.execute('BEGIN IMMEDIATE TRANSACTION;')"
p200
sI122
S'        return super(SQLiteAdapter, self).select(query, fields, attributes)'
p201
sI123
S''
sI124
S''
sI125
S'SPATIALLIBS = {'
p202
sI126
S"    'Windows':'libspatialite',"
p203
ssg83
S"(self=<pydal.adapters.sqlite.SQLiteAdapter object>, query=<Query (auth_user.email = 'mukulhase@gmail.com')>, fields=[<pydal.objects.Field object>, <pydal.objects.Field object>, <pydal.objects.Field object>, <pydal.objects.Field object>, <pydal.objects.Field object>, <pydal.objects.Field object>, <pydal.objects.Field object>, <pydal.objects.Field object>], attributes={'for_update': False, 'limitby': (0, 1), 'orderby': None, 'orderby_on_limitby': False})"
p204
sg85
g191
sa(dp205
g66
S'/Users/mukulhase/Downloads/web2py/web2py.app/Contents/Resources/gluon/packages/dal/pydal/adapters/base.py'
p206
sg68
(dp207
sg70
I1286
sg71
(dp208
I1281
S'            return cache_model('
p209
sI1282
S'                key,'
p210
sI1283
S'                lambda self=self,args=args:self._select_aux(*args),'
p211
sI1284
S'                time_expire)'
p212
sI1285
S'        else:'
p213
sI1286
S'            return self._select_aux(sql,fields,attributes)'
p214
sI1287
S''
sI1288
S'    def iterselect(self, query, fields, attributes):'
p215
sI1289
S'        sql = self._select(query, fields, attributes)'
p216
sI1290
S"        cacheable = attributes.get('cacheable', False)"
p217
ssg83
S"(self=<pydal.adapters.sqlite.SQLiteAdapter object>, query=<Query (auth_user.email = 'mukulhase@gmail.com')>, fields=[<pydal.objects.Field object>, <pydal.objects.Field object>, <pydal.objects.Field object>, <pydal.objects.Field object>, <pydal.objects.Field object>, <pydal.objects.Field object>, <pydal.objects.Field object>, <pydal.objects.Field object>], attributes={'for_update': False, 'limitby': (0, 1), 'orderby': None, 'orderby_on_limitby': False})"
p218
sg85
g191
sa(dp219
g66
S'/Users/mukulhase/Downloads/web2py/web2py.app/Contents/Resources/gluon/packages/dal/pydal/adapters/base.py'
p220
sg68
(dp221
sg70
I1243
sg71
(dp222
I1238
S''
sI1239
S'    def _select_aux(self, sql, fields, attributes):'
p223
sI1240
S'        args_get = attributes.get'
p224
sI1241
S"        cache = args_get('cache',None)"
p225
sI1242
S'        if not cache:'
p226
sI1243
S'            self.execute(sql)'
p227
sI1244
S'            rows = self._fetchall()'
p228
sI1245
S'        else:'
p229
sI1246
S'            if isinstance(cache, dict):'
p230
sI1247
S"                cache_model = cache['model']"
p231
ssg83
S'(self=<pydal.adapters.sqlite.SQLiteAdapter object>, sql="SELECT  auth_user.id, auth_user.first_name, auth....email = \'mukulhase@gmail.com\') LIMIT 1 OFFSET 0;", fields=[<pydal.objects.Field object>, <pydal.objects.Field object>, <pydal.objects.Field object>, <pydal.objects.Field object>, <pydal.objects.Field object>, <pydal.objects.Field object>, <pydal.objects.Field object>, <pydal.objects.Field object>], attributes={\'for_update\': False, \'limitby\': (0, 1), \'orderby\': None, \'orderby_on_limitby\': False})'
p232
sg85
S'_select_aux'
p233
sa(dp234
g66
S'/Users/mukulhase/Downloads/web2py/web2py.app/Contents/Resources/gluon/packages/dal/pydal/adapters/base.py'
p235
sg68
(dp236
sg70
I1378
sg71
(dp237
I1376
S''
sI1377
S'    def execute(self, *a, **b):'
p238
sI1378
S'        return self.log_execute(*a, **b)'
p239
sI1379
S''
sI1380
S'    def execute_test_query(self):'
p240
sI1381
S'        return self.execute(self.test_query)'
p241
sI1382
S''
sI1373
S'        self.db._timings.append((command,time.time()-t0))'
p242
sI1374
S'        del self.db._timings[:-TIMINGSSIZE]'
p243
sI1375
S'        return ret'
p244
ssg83
S'(self=<pydal.adapters.sqlite.SQLiteAdapter object>, *a=("SELECT  auth_user.id, auth_user.first_name, auth....email = \'mukulhase@gmail.com\') LIMIT 1 OFFSET 0;",), **b={})'
p245
sg85
S'execute'
p246
sa(dp247
g66
S'/Users/mukulhase/Downloads/web2py/web2py.app/Contents/Resources/gluon/packages/dal/pydal/adapters/base.py'
p248
sg68
(dp249
sg70
I1372
sg71
(dp250
I1376
S''
sI1367
S'            command = self.filter_sql_command(command)'
p251
sI1368
S'        if self.db._debug:'
p252
sI1369
S"            self.db.logger.debug('SQL: %s' % command)"
p253
sI1370
S'        self.db._lastsql = command'
p254
sI1371
S'        t0 = time.time()'
p255
sI1372
S'        ret = self.cursor.execute(command, *a[1:], **b)'
p256
sI1373
S'        self.db._timings.append((command,time.time()-t0))'
p257
sI1374
S'        del self.db._timings[:-TIMINGSSIZE]'
p258
sI1375
S'        return ret'
p259
ssg83
S'(self=<pydal.adapters.sqlite.SQLiteAdapter object>, *a=("SELECT  auth_user.id, auth_user.first_name, auth....email = \'mukulhase@gmail.com\') LIMIT 1 OFFSET 0;",), **b={})'
p260
sg85
S'log_execute'
p261
sasS'pyver'
p262
S'Python 2.7.3: /Users/mukulhase/Downloads/web2py/web2py.app/Contents/MacOS/python (prefix: /Users/mukulhase/Downloads/web2py/web2py.app/Contents/Resources)'
p263
sS'session'
p264
g61
(S's\x98\x00\x00\x00<div><table><tr><td style="font-weight:bold;vertical-align:top;">flash</td><td style="vertical-align:top;">:</td><td><div></div></td></tr></table></div>'
tRp265
sS'etype'
p266
S"<class 'sqlite3.OperationalError'>"
p267
sS'date'
p268
S'Sun Nov 15 13:20:41 2015'
p269
sS'response'
p270
g61
(S's\xb8 \x00\x00<div><table><tr><td style="font-weight:bold;vertical-align:top;">body</td><td style="vertical-align:top;">:</td><td><div>&lt;cStringIO.StringO object at 0x1091af308&gt;</div></td></tr><tr><td style="font-weight:bold;vertical-align:top;">cookies</td><td style="vertical-align:top;">:</td><td><div><table><tr><td style="font-weight:bold;vertical-align:top;">session_id_calenzone</td><td style="vertical-align:top;">:</td><td><div>192.168.177.103-30b8c301-d911-42f0-95c0-0d74e4545a1b<table><tr><td style="font-weight:bold;vertical-align:top;">comment</td><td style="vertical-align:top;">:</td><td><div></div></td></tr><tr><td style="font-weight:bold;vertical-align:top;">domain</td><td style="vertical-align:top;">:</td><td><div></div></td></tr><tr><td style="font-weight:bold;vertical-align:top;">expires</td><td style="vertical-align:top;">:</td><td><div></div></td></tr><tr><td style="font-weight:bold;vertical-align:top;">httponly</td><td style="vertical-align:top;">:</td><td><div></div></td></tr><tr><td style="font-weight:bold;vertical-align:top;">max-age</td><td style="vertical-align:top;">:</td><td><div></div></td></tr><tr><td style="font-weight:bold;vertical-align:top;">path</td><td style="vertical-align:top;">:</td><td><div>/</div></td></tr><tr><td style="font-weight:bold;vertical-align:top;">secure</td><td style="vertical-align:top;">:</td><td><div></div></td></tr><tr><td style="font-weight:bold;vertical-align:top;">version</td><td style="vertical-align:top;">:</td><td><div></div></td></tr></table></div></td></tr></table></div></td></tr><tr><td style="font-weight:bold;vertical-align:top;">delimiters</td><td style="vertical-align:top;">:</td><td><div><table><tr><td><div>{{</div></td></tr><tr><td><div>}}</div></td></tr></table></div></td></tr><tr><td style="font-weight:bold;vertical-align:top;">files</td><td style="vertical-align:top;">:</td><td><div><table></table></div></td></tr><tr><td style="font-weight:bold;vertical-align:top;">flash</td><td style="vertical-align:top;">:</td><td><div></div></td></tr><tr><td style="font-weight:bold;vertical-align:top;">form_label_separator</td><td style="vertical-align:top;">:</td><td><div></div></td></tr><tr><td style="font-weight:bold;vertical-align:top;">formstyle</td><td style="vertical-align:top;">:</td><td><div>bootstrap3_inline</div></td></tr><tr><td style="font-weight:bold;vertical-align:top;">generic_patterns</td><td style="vertical-align:top;">:</td><td><div><table><tr><td><div>*</div></td></tr></table></div></td></tr><tr><td style="font-weight:bold;vertical-align:top;">google_analytics_id</td><td style="vertical-align:top;">:</td><td><div>None</div></td></tr><tr><td style="font-weight:bold;vertical-align:top;">headers</td><td style="vertical-align:top;">:</td><td><div><table><tr><td style="font-weight:bold;vertical-align:top;">X-Powered-By</td><td style="vertical-align:top;">:</td><td><div>web2py</div></td></tr></table></div></td></tr><tr><td style="font-weight:bold;vertical-align:top;">logo</td><td style="vertical-align:top;">:</td><td><div><a class="navbar-brand" href="http://www.web2py.com/" id="web2py-logo"><b>web<span>2</span>py</b>&trade;&nbsp;</a></div></td></tr><tr><td style="font-weight:bold;vertical-align:top;">menu</td><td style="vertical-align:top;">:</td><td><div><table><tr><td><div><table><tr><td><div>Home</div></td></tr><tr><td><div>False</div></td></tr><tr><td><div>/CalenZone/default/index</div></td></tr><tr><td><div><table></table></div></td></tr></table></div></td></tr><tr><td><div><table><tr><td><div>Create an event</div></td></tr><tr><td><div>False</div></td></tr><tr><td><div>/CalenZone/default/createEvent</div></td></tr><tr><td><div><table></table></div></td></tr></table></div></td></tr><tr><td><div><table><tr><td><div>My events</div></td></tr><tr><td><div>False</div></td></tr><tr><td><div>/CalenZone/default/profile</div></td></tr><tr><td><div><table></table></div></td></tr></table></div></td></tr><tr><td><div><table><tr><td><div>Edit my Tags</div></td></tr><tr><td><div>False</div></td></tr><tr><td><div>/CalenZone/default/profile</div></td></tr><tr><td><div><table></table></div></td></tr></table></div></td></tr></table></div></td></tr><tr><td style="font-weight:bold;vertical-align:top;">meta</td><td style="vertical-align:top;">:</td><td><div><table><tr><td style="font-weight:bold;vertical-align:top;">author</td><td style="vertical-align:top;">:</td><td><div>Your Name &lt;you@example.com&gt;</div></td></tr><tr><td style="font-weight:bold;vertical-align:top;">description</td><td style="vertical-align:top;">:</td><td><div>a cool new app</div></td></tr><tr><td style="font-weight:bold;vertical-align:top;">generator</td><td style="vertical-align:top;">:</td><td><div>Web2py Web Framework</div></td></tr><tr><td style="font-weight:bold;vertical-align:top;">keywords</td><td style="vertical-align:top;">:</td><td><div>web2py, python, framework</div></td></tr></table></div></td></tr><tr><td style="font-weight:bold;vertical-align:top;">models_to_run</td><td style="vertical-align:top;">:</td><td><div><table><tr><td><div>^\\w+\\.py$</div></td></tr><tr><td><div>^default/\\w+\\.py$</div></td></tr><tr><td><div>^default/user/\\w+\\.py$</div></td></tr></table></div></td></tr><tr><td style="font-weight:bold;vertical-align:top;">postprocessing</td><td style="vertical-align:top;">:</td><td><div><table></table></div></td></tr><tr><td style="font-weight:bold;vertical-align:top;">session_client</td><td style="vertical-align:top;">:</td><td><div>192.168.177.103</div></td></tr><tr><td style="font-weight:bold;vertical-align:top;">session_cookie_compression_level</td><td style="vertical-align:top;">:</td><td><div>None</div></td></tr><tr><td style="font-weight:bold;vertical-align:top;">session_cookie_expires</td><td style="vertical-align:top;">:</td><td><div>None</div></td></tr><tr><td style="font-weight:bold;vertical-align:top;">session_cookie_key</td><td style="vertical-align:top;">:</td><td><div>None</div></td></tr><tr><td style="font-weight:bold;vertical-align:top;">session_data_name</td><td style="vertical-align:top;">:</td><td><div>session_data_calenzone</div></td></tr><tr><td style="font-weight:bold;vertical-align:top;">session_file</td><td style="vertical-align:top;">:</td><td><div>&lt;open file &#x27;/Users/mukulhase/Downloads/web2py/web2py.app/Contents/Resources/applications/CalenZone/sessions/02c/11d/192.168.177.103-30b8c301-d911-42f0-95c0-0d74e4545a1b&#x27;, mode &#x27;rb+&#x27; at 0x10e637ed0&gt;</div></td></tr><tr><td style="font-weight:bold;vertical-align:top;">session_filename</td><td style="vertical-align:top;">:</td><td><div>/Users/mukulhase/Downloads/web2py/web2py.app/Contents/Resources/applications/CalenZone/sessions/192.168.177.103-30b8c301-d911-42f0-95c0-0d74e4545a1b</div></td></tr><tr><td style="font-weight:bold;vertical-align:top;">session_hash</td><td style="vertical-align:top;">:</td><td><div>5674ce7e4b9bdcdedda1d20ebace47b3</div></td></tr><tr><td style="font-weight:bold;vertical-align:top;">session_id</td><td style="vertical-align:top;">:</td><td><div>192.168.177.103-30b8c301-d911-42f0-95c0-0d74e4545a1b</div></td></tr><tr><td style="font-weight:bold;vertical-align:top;">session_id_name</td><td style="vertical-align:top;">:</td><td><div>session_id_calenzone</div></td></tr><tr><td style="font-weight:bold;vertical-align:top;">session_locked</td><td style="vertical-align:top;">:</td><td><div>True</div></td></tr><tr><td style="font-weight:bold;vertical-align:top;">session_masterapp</td><td style="vertical-align:top;">:</td><td><div>CalenZone</div></td></tr><tr><td style="font-weight:bold;vertical-align:top;">session_new</td><td style="vertical-align:top;">:</td><td><div>False</div></td></tr><tr><td style="font-weight:bold;vertical-align:top;">session_storage_type</td><td style="vertical-align:top;">:</td><td><div>file</div></td></tr><tr><td style="font-weight:bold;vertical-align:top;">status</td><td style="vertical-align:top;">:</td><td><div>200</div></td></tr><tr><td style="font-weight:bold;vertical-align:top;">subtitle</td><td style="vertical-align:top;">:</td><td><div></div></td></tr><tr><td style="font-weight:bold;vertical-align:top;">title</td><td style="vertical-align:top;">:</td><td><div>Calenzone</div></td></tr><tr><td style="font-weight:bold;vertical-align:top;">view</td><td style="vertical-align:top;">:</td><td><div>default/user.html</div></td></tr></table></div>'
tRp271
sS'locals'
p272
(dp273
S'a'
S'("SELECT  auth_user.id, auth_user.first_name, auth....email = \'mukulhase@gmail.com\') LIMIT 1 OFFSET 0;",)'
p274
sS'self'
p275
S'<pydal.adapters.sqlite.SQLiteAdapter object>'
p276
sS'b'
g21
sS'command'
p277
S'"SELECT  auth_user.id, auth_user.first_name, auth....email = \'mukulhase@gmail.com\') LIMIT 1 OFFSET 0;"'
p278
sS't0'
p279
S'1447573841.217347'
p280
sssS'traceback'
p281
S'Traceback (most recent call last):\n  File "/Users/mukulhase/Downloads/web2py/web2py.app/Contents/Resources/gluon/restricted.py", line 227, in restricted\n  File "/Users/mukulhase/Downloads/web2py/web2py.app/Contents/Resources/applications/CalenZone/controllers/default.py", line 127, in <module>\n  File "/Users/mukulhase/Downloads/web2py/web2py.app/Contents/Resources/gluon/globals.py", line 412, in <lambda>\n  File "/Users/mukulhase/Downloads/web2py/web2py.app/Contents/Resources/applications/CalenZone/controllers/default.py", line 106, in user\n  File "/Users/mukulhase/Downloads/web2py/web2py.app/Contents/Resources/gluon/tools.py", line 1614, in __call__\n  File "/Users/mukulhase/Downloads/web2py/web2py.app/Contents/Resources/gluon/tools.py", line 2636, in login\n  File "/Users/mukulhase/Downloads/web2py/web2py.app/Contents/Resources/gluon/packages/dal/pydal/objects.py", line 540, in __call__\n  File "/Users/mukulhase/Downloads/web2py/web2py.app/Contents/Resources/gluon/packages/dal/pydal/objects.py", line 2002, in select\n  File "/Users/mukulhase/Downloads/web2py/web2py.app/Contents/Resources/gluon/packages/dal/pydal/adapters/sqlite.py", line 122, in select\n  File "/Users/mukulhase/Downloads/web2py/web2py.app/Contents/Resources/gluon/packages/dal/pydal/adapters/base.py", line 1286, in select\n  File "/Users/mukulhase/Downloads/web2py/web2py.app/Contents/Resources/gluon/packages/dal/pydal/adapters/base.py", line 1243, in _select_aux\n  File "/Users/mukulhase/Downloads/web2py/web2py.app/Contents/Resources/gluon/packages/dal/pydal/adapters/base.py", line 1378, in execute\n  File "/Users/mukulhase/Downloads/web2py/web2py.app/Contents/Resources/gluon/packages/dal/pydal/adapters/base.py", line 1372, in log_execute\nOperationalError: no such table: auth_user\n'
p282
s.